; ModuleID = '30/3066.c'
source_filename = "30/3066.c"
target datalayout = "e-m:e-p270:32:32-p271:32:32-p272:64:64-i64:64-f80:128-n8:16:32:64-S128"
target triple = "x86_64-pc-linux-gnu"

@.str = private unnamed_addr constant [3 x i8] c"%d\00", align 1

; Function Attrs: noinline nounwind uwtable
define dso_local void @main() #0 {
  %1 = alloca i32, align 4
  %2 = alloca i32, align 4
  %3 = alloca i32, align 4
  %4 = alloca i32, align 4
  %5 = alloca i32, align 4
  %6 = alloca i32, align 4
  %7 = call i32 (i8*, ...) @__isoc99_scanf(i8* getelementptr inbounds ([3 x i8], [3 x i8]* @.str, i64 0, i64 0), i32* %1)
  store i32 0, i32* %6, align 4
  store i32 1, i32* %2, align 4
  br label %8

8:                                                ; preds = %39, %0
  %9 = load i32, i32* %2, align 4
  %10 = load i32, i32* %1, align 4
  %11 = icmp sle i32 %9, %10
  br i1 %11, label %12, label %42

12:                                               ; preds = %8
  %13 = load i32, i32* %2, align 4
  %14 = sdiv i32 %13, 10
  store i32 %14, i32* %3, align 4
  %15 = load i32, i32* %2, align 4
  %16 = load i32, i32* %3, align 4
  %17 = mul nsw i32 %16, 10
  %18 = sub nsw i32 %15, %17
  store i32 %18, i32* %4, align 4
  %19 = load i32, i32* %2, align 4
  %20 = load i32, i32* %2, align 4
  %21 = sdiv i32 %20, 7
  %22 = mul nsw i32 %21, 7
  %23 = sub nsw i32 %19, %22
  store i32 %23, i32* %5, align 4
  %24 = load i32, i32* %3, align 4
  %25 = icmp ne i32 %24, 7
  br i1 %25, label %26, label %38

26:                                               ; preds = %12
  %27 = load i32, i32* %4, align 4
  %28 = icmp ne i32 %27, 7
  br i1 %28, label %29, label %38

29:                                               ; preds = %26
  %30 = load i32, i32* %5, align 4
  %31 = icmp ne i32 %30, 0
  br i1 %31, label %32, label %38

32:                                               ; preds = %29
  %33 = load i32, i32* %6, align 4
  %34 = load i32, i32* %2, align 4
  %35 = load i32, i32* %2, align 4
  %36 = mul nsw i32 %34, %35
  %37 = add nsw i32 %33, %36
  store i32 %37, i32* %6, align 4
  br label %38

38:                                               ; preds = %32, %29, %26, %12
  br label %39

39:                                               ; preds = %38
  %40 = load i32, i32* %2, align 4
  %41 = add nsw i32 %40, 1
  store i32 %41, i32* %2, align 4
  br label %8

42:                                               ; preds = %8
  %43 = load i32, i32* %6, align 4
  %44 = call i32 (i8*, ...) @printf(i8* getelementptr inbounds ([3 x i8], [3 x i8]* @.str, i64 0, i64 0), i32 %43)
  ret void
}

declare dso_local i32 @__isoc99_scanf(i8*, ...) #1

declare dso_local i32 @printf(i8*, ...) #1


!llvm.module.flags = !{!0}
!llvm.ident = !{!1}

!0 = !{i32 1, !"wchar_size", i32 4}
!1 = !{!"clang version 10.0.0-4ubuntu1 "}
